target datalayout = "e-m:e-p270:32:32-p271:32:32-p272:64:64-i64:64-i128:128-f80:128-n8:16:32:64-S128"
target triple = "x86_64-pc-linux-gnu"

%struct.FSMPageData = type { i32, [0 x i8] }

; Function Attrs: inlinehint nounwind uwtable
define internal ptr @PageGetContents(ptr noundef %0) #2 {
  %2 = alloca ptr, align 8
  store ptr %0, ptr %2, align 8
  %3 = load ptr, ptr %2, align 8
  %4 = getelementptr inbounds nuw i8, ptr %3, i64 24
  ret ptr %4
}

; Function Attrs: nounwind uwtable
define dso_local zeroext i1 @fsm_rebuild_page(ptr noundef %0) #0 {
  %2 = alloca ptr, align 8
  %3 = alloca ptr, align 8
  %4 = alloca i8, align 1
  %5 = alloca i32, align 4
  %6 = alloca i32, align 4
  %7 = alloca i32, align 4
  %8 = alloca i8, align 1
  store ptr %0, ptr %2, align 8
  call void @llvm.lifetime.start.p0(i64 8, ptr %3) #5
  %9 = load ptr, ptr %2, align 8
  %10 = call ptr @PageGetContents(ptr noundef %9)
  store ptr %10, ptr %3, align 8
  call void @llvm.lifetime.start.p0(i64 1, ptr %4) #5
  store i8 0, ptr %4, align 1
  call void @llvm.lifetime.start.p0(i64 4, ptr %5) #5
  store i32 4094, ptr %5, align 4
  br label %11

11:                                               ; preds = %78, %1
  %12 = load i32, ptr %5, align 4
  %13 = icmp sge i32 %12, 0
  br i1 %13, label %14, label %81

14:                                               ; preds = %11
  call void @llvm.lifetime.start.p0(i64 4, ptr %6) #5
  %15 = load i32, ptr %5, align 4
  %16 = mul i32 2, %15
  %17 = add i32 %16, 1
  store i32 %17, ptr %6, align 4
  call void @llvm.lifetime.start.p0(i64 4, ptr %7) #5
  %18 = load i32, ptr %6, align 4
  %19 = add i32 %18, 1
  store i32 %19, ptr %7, align 4
  call void @llvm.lifetime.start.p0(i64 1, ptr %8) #5
  store i8 0, ptr %8, align 1
  %20 = load i32, ptr %6, align 4
  %21 = sext i32 %20 to i64
  %22 = icmp ult i64 %21, 8164
  br i1 %22, label %23, label %30

23:                                               ; preds = %14
  %24 = load ptr, ptr %3, align 8
  %25 = getelementptr inbounds nuw %struct.FSMPageData, ptr %24, i32 0, i32 1
  %26 = load i32, ptr %6, align 4
  %27 = sext i32 %26 to i64
  %28 = getelementptr inbounds [0 x i8], ptr %25, i64 0, i64 %27
  %29 = load i8, ptr %28, align 1
  store i8 %29, ptr %8, align 1
  br label %30

30:                                               ; preds = %23, %14
  %31 = load i32, ptr %7, align 4
  %32 = sext i32 %31 to i64
  %33 = icmp ult i64 %32, 8164
  br i1 %33, label %34, label %59

34:                                               ; preds = %30
  %35 = load i8, ptr %8, align 1
  %36 = zext i8 %35 to i32
  %37 = load ptr, ptr %3, align 8
  %38 = getelementptr inbounds nuw %struct.FSMPageData, ptr %37, i32 0, i32 1
  %39 = load i32, ptr %7, align 4
  %40 = sext i32 %39 to i64
  %41 = getelementptr inbounds [0 x i8], ptr %38, i64 0, i64 %40
  %42 = load i8, ptr %41, align 1
  %43 = zext i8 %42 to i32
  %44 = icmp sgt i32 %36, %43
  br i1 %44, label %45, label %48

45:                                               ; preds = %34
  %46 = load i8, ptr %8, align 1
  %47 = zext i8 %46 to i32
  br label %56

48:                                               ; preds = %34
  %49 = load ptr, ptr %3, align 8
  %50 = getelementptr inbounds nuw %struct.FSMPageData, ptr %49, i32 0, i32 1
  %51 = load i32, ptr %7, align 4
  %52 = sext i32 %51 to i64
  %53 = getelementptr inbounds [0 x i8], ptr %50, i64 0, i64 %52
  %54 = load i8, ptr %53, align 1
  %55 = zext i8 %54 to i32
  br label %56

56:                                               ; preds = %48, %45
  %57 = phi i32 [ %47, %45 ], [ %55, %48 ]
  %58 = trunc i32 %57 to i8
  store i8 %58, ptr %8, align 1
  br label %59

59:                                               ; preds = %56, %30
  %60 = load ptr, ptr %3, align 8
  %61 = getelementptr inbounds nuw %struct.FSMPageData, ptr %60, i32 0, i32 1
  %62 = load i32, ptr %5, align 4
  %63 = sext i32 %62 to i64
  %64 = getelementptr inbounds [0 x i8], ptr %61, i64 0, i64 %63
  %65 = load i8, ptr %64, align 1
  %66 = zext i8 %65 to i32
  %67 = load i8, ptr %8, align 1
  %68 = zext i8 %67 to i32
  %69 = icmp ne i32 %66, %68
  br i1 %69, label %70, label %77

70:                                               ; preds = %59
  %71 = load i8, ptr %8, align 1
  %72 = load ptr, ptr %3, align 8
  %73 = getelementptr inbounds nuw %struct.FSMPageData, ptr %72, i32 0, i32 1
  %74 = load i32, ptr %5, align 4
  %75 = sext i32 %74 to i64
  %76 = getelementptr inbounds [0 x i8], ptr %73, i64 0, i64 %75
  store i8 %71, ptr %76, align 1
  store i8 1, ptr %4, align 1
  br label %77

77:                                               ; preds = %70, %59
  call void @llvm.lifetime.end.p0(i64 1, ptr %8) #5
  call void @llvm.lifetime.end.p0(i64 4, ptr %7) #5
  call void @llvm.lifetime.end.p0(i64 4, ptr %6) #5
  br label %78

78:                                               ; preds = %77
  %79 = load i32, ptr %5, align 4
  %80 = add i32 %79, -1
  store i32 %80, ptr %5, align 4
  br label %11, !llvm.loop !6

81:                                               ; preds = %11
  %82 = load i8, ptr %4, align 1, !range !7, !noundef !8
  %83 = trunc i8 %82 to i1
  call void @llvm.lifetime.end.p0(i64 4, ptr %5) #5
  call void @llvm.lifetime.end.p0(i64 1, ptr %4) #5
  call void @llvm.lifetime.end.p0(i64 8, ptr %3) #5
  ret i1 %83
}