; Function Attrs: nofree norecurse nosync nounwind memory(argmem: readwrite) uwtable
define dso_local zeroext i1 @fsm_rebuild_page(ptr noundef captures(none) %0) local_unnamed_addr #0 {
  %2 = getelementptr inbounds nuw i8, ptr %0, i64 28
  br label %3

3:                                                ; preds = %1, %17
  %indvars.iv = phi i64 [ 4094, %1 ], [ %indvars.iv.next, %17 ]
  %.02129 = phi i1 [ false, %1 ], [ %.122, %17 ]
  %4 = shl nuw i64 %indvars.iv, 1
  %5 = add nuw nsw i64 %4, 2
  %6 = icmp samesign ult i64 %indvars.iv, 4082
  br i1 %6, label %7, label %.thread

7:                                                ; preds = %3
  %8 = or disjoint i64 %4, 1
  %9 = getelementptr inbounds nuw [0 x i8], ptr %2, i64 0, i64 %8
  %10 = load i8, ptr %9, align 1
  %.not32 = icmp eq i64 %indvars.iv, 4081
  br i1 %.not32, label %.thread, label %11

11:                                               ; preds = %7
  %12 = getelementptr inbounds nuw [0 x i8], ptr %2, i64 0, i64 %5
  %13 = load i8, ptr %12, align 1
  %.0. = tail call i8 @llvm.umax.i8(i8 %10, i8 %13)
  br label %.thread

.thread:                                          ; preds = %3, %11, %7
  %.1 = phi i8 [ %.0., %11 ], [ %10, %7 ], [ 0, %3 ]
  %14 = getelementptr inbounds nuw [0 x i8], ptr %2, i64 0, i64 %indvars.iv
  %15 = load i8, ptr %14, align 1
  %.not = icmp eq i8 %15, %.1
  br i1 %.not, label %17, label %16

16:                                               ; preds = %.thread
  store i8 %.1, ptr %14, align 1
  br label %17

17:                                               ; preds = %16, %.thread
  %.122 = phi i1 [ true, %16 ], [ %.02129, %.thread ]
  %indvars.iv.next = add nsw i64 %indvars.iv, -1
  %.not30 = icmp eq i64 %indvars.iv, 0
  br i1 %.not30, label %18, label %3, !llvm.loop !6

18:                                               ; preds = %17
  ret i1 %.122
}